target datalayout = "e-m:e-p270:32:32-p271:32:32-p272:64:64-i64:64-i128:128-f80:128-n8:16:32:64-S128"
target triple = "x86_64-pc-linux-gnu"

%"class.Imf_3_4::Attribute" = type { ptr }
%"class.Imf_3_4::TypedAttribute.4" = type { %"class.Imf_3_4::Attribute", %"class.std::__cxx11::basic_string" }
%"class.std::__cxx11::basic_string" = type { %"struct.std::__cxx11::basic_string<char>::_Alloc_hider", i64, %union.anon }
%"struct.std::__cxx11::basic_string<char>::_Alloc_hider" = type { ptr }
%union.anon = type { i64, [8 x i8] }

@.str.37 = private unnamed_addr constant [9 x i8] c"comments\00", align 1

; Function Attrs: mustprogress uwtable
define void @_ZN7Imf_3_411addCommentsERNS_6HeaderERKNSt7__cxx1112basic_stringIcSt11char_traitsIcESaIcEEE(ptr noundef nonnull align 8 dereferenceable(49) %0, ptr noundef nonnull align 8 dereferenceable(32) %1) #4 personality ptr @__gxx_personality_v0 {
  %3 = alloca ptr, align 8
  %4 = alloca ptr, align 8
  %5 = alloca %"class.Imf_3_4::TypedAttribute.4", align 8
  %6 = alloca ptr, align 8
  %7 = alloca i32, align 4
  store ptr %0, ptr %3, align 8, !tbaa !3
  store ptr %1, ptr %4, align 8, !tbaa !31
  %8 = load ptr, ptr %3, align 8, !tbaa !3
  call void @llvm.lifetime.start.p0(i64 40, ptr %5) #3
  %9 = load ptr, ptr %4, align 8, !tbaa !31
  call void @_ZN7Imf_3_414TypedAttributeINSt7__cxx1112basic_stringIcSt11char_traitsIcESaIcEEEEC1ERKS6_(ptr noundef nonnull align 8 dereferenceable(40) %5, ptr noundef nonnull align 8 dereferenceable(32) %9)
  invoke void @_ZN7Imf_3_46Header6insertEPKcRKNS_9AttributeE(ptr noundef nonnull align 8 dereferenceable(49) %8, ptr noundef @.str.37, ptr noundef nonnull align 8 dereferenceable(8) %5)
          to label %10 unwind label %11

10:                                               ; preds = %2
  call void @_ZN7Imf_3_414TypedAttributeINSt7__cxx1112basic_stringIcSt11char_traitsIcESaIcEEEED1Ev(ptr noundef nonnull align 8 dereferenceable(40) %5) #3
  call void @llvm.lifetime.end.p0(i64 40, ptr %5) #3
  ret void

11:                                               ; preds = %2
  %12 = landingpad { ptr, i32 }
          cleanup
  %13 = extractvalue { ptr, i32 } %12, 0
  store ptr %13, ptr %6, align 8
  %14 = extractvalue { ptr, i32 } %12, 1
  store i32 %14, ptr %7, align 4
  call void @_ZN7Imf_3_414TypedAttributeINSt7__cxx1112basic_stringIcSt11char_traitsIcESaIcEEEED1Ev(ptr noundef nonnull align 8 dereferenceable(40) %5) #3
  call void @llvm.lifetime.end.p0(i64 40, ptr %5) #3
  br label %15

15:                                               ; preds = %11
  %16 = load ptr, ptr %6, align 8
  %17 = load i32, ptr %7, align 4
  %18 = insertvalue { ptr, i32 } poison, ptr %16, 0
  %19 = insertvalue { ptr, i32 } %18, i32 %17, 1
  resume { ptr, i32 } %19
}